target datalayout = "e-m:e-p270:32:32-p271:32:32-p272:64:64-i64:64-i128:128-f80:128-n8:16:32:64-S128"
target triple = "x86_64-pc-linux-gnu"

%struct.expert_field = type { i32, i32 }

@hf_1722_cvf_seqnum = internal global i32 0, align 4
@hf_1722_cvf_tufield = internal global i32 0, align 4
@hf_1722_cvf_stream_id = internal global i32 0, align 4
@hf_1722_cvf_avtp_timestamp = internal global i32 0, align 4
@hf_1722_cvf_format = internal global i32 0, align 4
@hf_1722_cvf_format_subtype = internal global i32 0, align 4
@hf_1722_cvf_stream_data_length = internal global i32 0, align 4
@hf_1722_cvf_h264_timestamp = internal global i32 0, align 4
@ei_cvf_jpeg2000_format = internal global %struct.expert_field zeroinitializer, align 4
@ei_cvf_reserved_format = internal global %struct.expert_field zeroinitializer, align 4
@ei_cvf_invalid_data_length = internal global %struct.expert_field zeroinitializer, align 4
@ett_1722_cvf = internal global i32 0, align 4
@proto_1722_cvf = internal global i32 0, align 4
@jpeg_handle = internal global ptr null, align 8
@h264_handle = internal global ptr null, align 8
@dissect_1722_cvf.fields = internal constant [3 x ptr] [ptr @hf_1722_cvf_mrfield, ptr @hf_1722_cvf_tvfield, ptr null], align 16
@dissect_1722_cvf.fields_cvf = internal constant [3 x ptr] [ptr @hf_1722_cvf_marker_bit, ptr @hf_1722_cvf_evtfield, ptr null], align 16
@dissect_1722_cvf.fields_h264 = internal constant [4 x ptr] [ptr @hf_1722_cvf_h264_ptvfield, ptr @hf_1722_cvf_marker_bit, ptr @hf_1722_cvf_evtfield, ptr null], align 16

; Function Attrs: null_pointer_is_valid sspstrong uwtable
define internal i32 @dissect_1722_cvf(ptr noundef %0, ptr noundef %1, ptr noundef %2, ptr noundef %3) #0 {
  %5 = alloca ptr, align 8
  %6 = alloca ptr, align 8
  %7 = alloca ptr, align 8
  %8 = alloca ptr, align 8
  %9 = alloca ptr, align 8
  %10 = alloca ptr, align 8
  %11 = alloca ptr, align 8
  %12 = alloca i32, align 4
  %13 = alloca i32, align 4
  %14 = alloca i32, align 4
  %15 = alloca i32, align 4
  %16 = alloca i32, align 4
  %17 = alloca ptr, align 8
  %18 = alloca ptr, align 8
  store ptr %0, ptr %5, align 8
  store ptr %1, ptr %6, align 8
  store ptr %2, ptr %7, align 8
  store ptr %3, ptr %8, align 8
  call void @llvm.lifetime.start.p0(i64 8, ptr %9) #9
  call void @llvm.lifetime.start.p0(i64 8, ptr %10) #9
  call void @llvm.lifetime.start.p0(i64 8, ptr %11) #9
  call void @llvm.lifetime.start.p0(i64 4, ptr %12) #9
  store i32 1, ptr %12, align 4
  call void @llvm.lifetime.start.p0(i64 4, ptr %13) #9
  call void @llvm.lifetime.start.p0(i64 4, ptr %14) #9
  call void @llvm.lifetime.start.p0(i64 4, ptr %15) #9
  call void @llvm.lifetime.start.p0(i64 4, ptr %16) #9
  store i32 0, ptr %16, align 4
  call void @llvm.lifetime.start.p0(i64 8, ptr %17) #9
  call void @llvm.lifetime.start.p0(i64 8, ptr %18) #9
  %19 = load ptr, ptr %7, align 8
  %20 = load i32, ptr @proto_1722_cvf, align 4
  %21 = load ptr, ptr %5, align 8
  %22 = call ptr @proto_tree_add_item(ptr noundef %19, i32 noundef %20, ptr noundef %21, i32 noundef 0, i32 noundef 24, i32 noundef 0)
  store ptr %22, ptr %9, align 8
  %23 = load ptr, ptr %9, align 8
  %24 = load i32, ptr @ett_1722_cvf, align 4
  %25 = call ptr @proto_item_add_subtree(ptr noundef %23, i32 noundef %24)
  store ptr %25, ptr %10, align 8
  %26 = load ptr, ptr %10, align 8
  %27 = load ptr, ptr %5, align 8
  %28 = load i32, ptr %12, align 4
  call void @proto_tree_add_bitmask_list(ptr noundef %26, ptr noundef %27, i32 noundef %28, i32 noundef 1, ptr noundef @dissect_1722_cvf.fields, i32 noundef 0)
  %29 = load i32, ptr %12, align 4
  %30 = add i32 %29, 1
  store i32 %30, ptr %12, align 4
  %31 = load ptr, ptr %10, align 8
  %32 = load i32, ptr @hf_1722_cvf_seqnum, align 4
  %33 = load ptr, ptr %5, align 8
  %34 = load i32, ptr %12, align 4
  %35 = call ptr @proto_tree_add_item(ptr noundef %31, i32 noundef %32, ptr noundef %33, i32 noundef %34, i32 noundef 1, i32 noundef 0)
  %36 = load i32, ptr %12, align 4
  %37 = add i32 %36, 1
  store i32 %37, ptr %12, align 4
  %38 = load ptr, ptr %10, align 8
  %39 = load i32, ptr @hf_1722_cvf_tufield, align 4
  %40 = load ptr, ptr %5, align 8
  %41 = load i32, ptr %12, align 4
  %42 = call ptr @proto_tree_add_item(ptr noundef %38, i32 noundef %39, ptr noundef %40, i32 noundef %41, i32 noundef 1, i32 noundef 0)
  %43 = load i32, ptr %12, align 4
  %44 = add i32 %43, 1
  store i32 %44, ptr %12, align 4
  %45 = load ptr, ptr %10, align 8
  %46 = load i32, ptr @hf_1722_cvf_stream_id, align 4
  %47 = load ptr, ptr %5, align 8
  %48 = load i32, ptr %12, align 4
  %49 = call ptr @proto_tree_add_item(ptr noundef %45, i32 noundef %46, ptr noundef %47, i32 noundef %48, i32 noundef 8, i32 noundef 0)
  %50 = load i32, ptr %12, align 4
  %51 = add i32 %50, 8
  store i32 %51, ptr %12, align 4
  %52 = load ptr, ptr %10, align 8
  %53 = load i32, ptr @hf_1722_cvf_avtp_timestamp, align 4
  %54 = load ptr, ptr %5, align 8
  %55 = load i32, ptr %12, align 4
  %56 = call ptr @proto_tree_add_item(ptr noundef %52, i32 noundef %53, ptr noundef %54, i32 noundef %55, i32 noundef 4, i32 noundef 0)
  %57 = load i32, ptr %12, align 4
  %58 = add i32 %57, 4
  store i32 %58, ptr %12, align 4
  %59 = load ptr, ptr %10, align 8
  %60 = load i32, ptr @hf_1722_cvf_format, align 4
  %61 = load ptr, ptr %5, align 8
  %62 = load i32, ptr %12, align 4
  %63 = call ptr @proto_tree_add_item_ret_uint(ptr noundef %59, i32 noundef %60, ptr noundef %61, i32 noundef %62, i32 noundef 1, i32 noundef 0, ptr noundef %15)
  store ptr %63, ptr %17, align 8
  %64 = load i32, ptr %15, align 4
  %65 = icmp eq i32 %64, 2
  br i1 %65, label %66, label %76

66:                                               ; preds = %4
  %67 = load i32, ptr %12, align 4
  %68 = add i32 %67, 1
  store i32 %68, ptr %12, align 4
  %69 = load ptr, ptr %10, align 8
  %70 = load i32, ptr @hf_1722_cvf_format_subtype, align 4
  %71 = load ptr, ptr %5, align 8
  %72 = load i32, ptr %12, align 4
  %73 = call ptr @proto_tree_add_item_ret_uint(ptr noundef %69, i32 noundef %70, ptr noundef %71, i32 noundef %72, i32 noundef 1, i32 noundef 0, ptr noundef %16)
  store ptr %73, ptr %17, align 8
  %74 = load i32, ptr %12, align 4
  %75 = add i32 %74, 3
  store i32 %75, ptr %12, align 4
  br label %82

76:                                               ; preds = %4
  %77 = load ptr, ptr %6, align 8
  %78 = load ptr, ptr %17, align 8
  %79 = call ptr @expert_add_info(ptr noundef %77, ptr noundef %78, ptr noundef @ei_cvf_reserved_format)
  %80 = load i32, ptr %12, align 4
  %81 = add i32 %80, 4
  store i32 %81, ptr %12, align 4
  br label %82

82:                                               ; preds = %76, %66
  %83 = load ptr, ptr %10, align 8
  %84 = load i32, ptr @hf_1722_cvf_stream_data_length, align 4
  %85 = load ptr, ptr %5, align 8
  %86 = load i32, ptr %12, align 4
  %87 = call ptr @proto_tree_add_item_ret_uint(ptr noundef %83, i32 noundef %84, ptr noundef %85, i32 noundef %86, i32 noundef 2, i32 noundef 0, ptr noundef %14)
  store ptr %87, ptr %18, align 8
  %88 = load i32, ptr %12, align 4
  %89 = add i32 %88, 2
  store i32 %89, ptr %12, align 4
  %90 = load i32, ptr %15, align 4
  %91 = icmp eq i32 %90, 2
  br i1 %91, label %92, label %99

92:                                               ; preds = %82
  %93 = load i32, ptr %16, align 4
  %94 = icmp eq i32 %93, 1
  br i1 %94, label %95, label %99

95:                                               ; preds = %92
  %96 = load ptr, ptr %10, align 8
  %97 = load ptr, ptr %5, align 8
  %98 = load i32, ptr %12, align 4
  call void @proto_tree_add_bitmask_list(ptr noundef %96, ptr noundef %97, i32 noundef %98, i32 noundef 1, ptr noundef @dissect_1722_cvf.fields_h264, i32 noundef 0)
  br label %103

99:                                               ; preds = %92, %82
  %100 = load ptr, ptr %10, align 8
  %101 = load ptr, ptr %5, align 8
  %102 = load i32, ptr %12, align 4
  call void @proto_tree_add_bitmask_list(ptr noundef %100, ptr noundef %101, i32 noundef %102, i32 noundef 1, ptr noundef @dissect_1722_cvf.fields_cvf, i32 noundef 0)
  br label %103

103:                                              ; preds = %99, %95
  %104 = load i32, ptr %12, align 4
  %105 = add i32 %104, 2
  store i32 %105, ptr %12, align 4
  %106 = load ptr, ptr %5, align 8
  %107 = load i32, ptr %12, align 4
  %108 = call i32 @tvb_reported_length_remaining(ptr noundef %106, i32 noundef %107)
  store i32 %108, ptr %13, align 4
  %109 = load i32, ptr %13, align 4
  %110 = load i32, ptr %14, align 4
  %111 = icmp ult i32 %109, %110
  br i1 %111, label %112, label %117

112:                                              ; preds = %103
  %113 = load ptr, ptr %6, align 8
  %114 = load ptr, ptr %18, align 8
  %115 = call ptr @expert_add_info(ptr noundef %113, ptr noundef %114, ptr noundef @ei_cvf_invalid_data_length)
  %116 = load i32, ptr %13, align 4
  store i32 %116, ptr %14, align 4
  br label %117

117:                                              ; preds = %112, %103
  %118 = load ptr, ptr %5, align 8
  %119 = load i32, ptr %12, align 4
  %120 = load i32, ptr %14, align 4
  %121 = call ptr @tvb_new_subset_length(ptr noundef %118, i32 noundef %119, i32 noundef %120)
  store ptr %121, ptr %11, align 8
  %122 = load i32, ptr %15, align 4
  %123 = icmp eq i32 %122, 2
  br i1 %123, label %124, label %161

124:                                              ; preds = %117
  %125 = load i32, ptr %16, align 4
  switch i32 %125, label %152 [
    i32 0, label %126
    i32 1, label %132
    i32 2, label %144
  ]

126:                                              ; preds = %124
  %127 = load ptr, ptr @jpeg_handle, align 8
  %128 = load ptr, ptr %11, align 8
  %129 = load ptr, ptr %6, align 8
  %130 = load ptr, ptr %7, align 8
  %131 = call i32 @call_dissector(ptr noundef %127, ptr noundef %128, ptr noundef %129, ptr noundef %130)
  br label %160

132:                                              ; preds = %124
  %133 = load ptr, ptr %10, align 8
  %134 = load i32, ptr @hf_1722_cvf_h264_timestamp, align 4
  %135 = load ptr, ptr %5, align 8
  %136 = load i32, ptr %12, align 4
  %137 = call ptr @proto_tree_add_item(ptr noundef %133, i32 noundef %134, ptr noundef %135, i32 noundef %136, i32 noundef 4, i32 noundef 0)
  %138 = load ptr, ptr @h264_handle, align 8
  %139 = load ptr, ptr %11, align 8
  %140 = call ptr @tvb_new_subset_remaining(ptr noundef %139, i32 noundef 4)
  %141 = load ptr, ptr %6, align 8
  %142 = load ptr, ptr %7, align 8
  %143 = call i32 @call_dissector(ptr noundef %138, ptr noundef %140, ptr noundef %141, ptr noundef %142)
  br label %160

144:                                              ; preds = %124
  %145 = load ptr, ptr %6, align 8
  %146 = load ptr, ptr %17, align 8
  %147 = call ptr @expert_add_info(ptr noundef %145, ptr noundef %146, ptr noundef @ei_cvf_jpeg2000_format)
  %148 = load ptr, ptr %11, align 8
  %149 = load ptr, ptr %6, align 8
  %150 = load ptr, ptr %7, align 8
  %151 = call i32 @call_data_dissector(ptr noundef %148, ptr noundef %149, ptr noundef %150)
  br label %160

152:                                              ; preds = %124
  %153 = load ptr, ptr %6, align 8
  %154 = load ptr, ptr %17, align 8
  %155 = call ptr @expert_add_info(ptr noundef %153, ptr noundef %154, ptr noundef @ei_cvf_reserved_format)
  %156 = load ptr, ptr %11, align 8
  %157 = load ptr, ptr %6, align 8
  %158 = load ptr, ptr %7, align 8
  %159 = call i32 @call_data_dissector(ptr noundef %156, ptr noundef %157, ptr noundef %158)
  br label %160

160:                                              ; preds = %152, %144, %132, %126
  br label %166

161:                                              ; preds = %117
  %162 = load ptr, ptr %11, align 8
  %163 = load ptr, ptr %6, align 8
  %164 = load ptr, ptr %7, align 8
  %165 = call i32 @call_data_dissector(ptr noundef %162, ptr noundef %163, ptr noundef %164)
  br label %166

166:                                              ; preds = %161, %160
  %167 = load i32, ptr %12, align 4
  %168 = load i32, ptr %14, align 4
  %169 = add i32 %167, %168
  call void @llvm.lifetime.end.p0(i64 8, ptr %18) #9
  call void @llvm.lifetime.end.p0(i64 8, ptr %17) #9
  call void @llvm.lifetime.end.p0(i64 4, ptr %16) #9
  call void @llvm.lifetime.end.p0(i64 4, ptr %15) #9
  call void @llvm.lifetime.end.p0(i64 4, ptr %14) #9
  call void @llvm.lifetime.end.p0(i64 4, ptr %13) #9
  call void @llvm.lifetime.end.p0(i64 4, ptr %12) #9
  call void @llvm.lifetime.end.p0(i64 8, ptr %11) #9
  call void @llvm.lifetime.end.p0(i64 8, ptr %10) #9
  call void @llvm.lifetime.end.p0(i64 8, ptr %9) #9
  ret i32 %169
}