; Function Attrs: null_pointer_is_valid sspstrong uwtable
define internal i32 @dissect_1722_cvf(ptr noundef %0, ptr noundef %1, ptr noundef %2, ptr readnone captures(none) %3) #0 {
  %5 = alloca i32, align 4
  %6 = alloca i32, align 4
  %7 = alloca i32, align 4
  call void @llvm.lifetime.start.p0(i64 4, ptr nonnull %5) #7
  call void @llvm.lifetime.start.p0(i64 4, ptr nonnull %6) #7
  call void @llvm.lifetime.start.p0(i64 4, ptr nonnull %7) #7
  store i32 0, ptr %7, align 4
  %8 = load i32, ptr @proto_1722_cvf, align 4
  %9 = tail call ptr @proto_tree_add_item(ptr noundef %2, i32 noundef %8, ptr noundef %0, i32 noundef 0, i32 noundef 24, i32 noundef 0)
  %10 = load i32, ptr @ett_1722_cvf, align 4
  %11 = tail call ptr @proto_item_add_subtree(ptr noundef %9, i32 noundef %10)
  tail call void @proto_tree_add_bitmask_list(ptr noundef %11, ptr noundef %0, i32 noundef 1, i32 noundef 1, ptr noundef nonnull @dissect_1722_cvf.fields, i32 noundef 0)
  %12 = load i32, ptr @hf_1722_cvf_seqnum, align 4
  %13 = tail call ptr @proto_tree_add_item(ptr noundef %11, i32 noundef %12, ptr noundef %0, i32 noundef 2, i32 noundef 1, i32 noundef 0)
  %14 = load i32, ptr @hf_1722_cvf_tufield, align 4
  %15 = tail call ptr @proto_tree_add_item(ptr noundef %11, i32 noundef %14, ptr noundef %0, i32 noundef 3, i32 noundef 1, i32 noundef 0)
  %16 = load i32, ptr @hf_1722_cvf_stream_id, align 4
  %17 = tail call ptr @proto_tree_add_item(ptr noundef %11, i32 noundef %16, ptr noundef %0, i32 noundef 4, i32 noundef 8, i32 noundef 0)
  %18 = load i32, ptr @hf_1722_cvf_avtp_timestamp, align 4
  %19 = tail call ptr @proto_tree_add_item(ptr noundef %11, i32 noundef %18, ptr noundef %0, i32 noundef 12, i32 noundef 4, i32 noundef 0)
  %20 = load i32, ptr @hf_1722_cvf_format, align 4
  %21 = call ptr @proto_tree_add_item_ret_uint(ptr noundef %11, i32 noundef %20, ptr noundef %0, i32 noundef 16, i32 noundef 1, i32 noundef 0, ptr noundef nonnull %6)
  %22 = load i32, ptr %6, align 4
  %23 = icmp eq i32 %22, 2
  br i1 %23, label %24, label %27

24:                                               ; preds = %4
  %25 = load i32, ptr @hf_1722_cvf_format_subtype, align 4
  %26 = call ptr @proto_tree_add_item_ret_uint(ptr noundef %11, i32 noundef %25, ptr noundef %0, i32 noundef 17, i32 noundef 1, i32 noundef 0, ptr noundef nonnull %7)
  br label %29

27:                                               ; preds = %4
  %28 = call ptr @expert_add_info(ptr noundef %1, ptr noundef %21, ptr noundef nonnull @ei_cvf_reserved_format)
  br label %29

29:                                               ; preds = %27, %24
  %.076 = phi ptr [ %26, %24 ], [ %21, %27 ]
  %30 = load i32, ptr @hf_1722_cvf_stream_data_length, align 4
  %31 = call ptr @proto_tree_add_item_ret_uint(ptr noundef %11, i32 noundef %30, ptr noundef %0, i32 noundef 20, i32 noundef 2, i32 noundef 0, ptr noundef nonnull %5)
  %32 = load i32, ptr %6, align 4
  %33 = icmp eq i32 %32, 2
  %34 = load i32, ptr %7, align 4
  %35 = icmp eq i32 %34, 1
  %or.cond = select i1 %33, i1 %35, i1 false
  %dissect_1722_cvf.fields_h264.dissect_1722_cvf.fields_cvf = select i1 %or.cond, ptr @dissect_1722_cvf.fields_h264, ptr @dissect_1722_cvf.fields_cvf
  call void @proto_tree_add_bitmask_list(ptr noundef %11, ptr noundef %0, i32 noundef 22, i32 noundef 1, ptr noundef nonnull %dissect_1722_cvf.fields_h264.dissect_1722_cvf.fields_cvf, i32 noundef 0)
  %36 = call i32 @tvb_reported_length_remaining(ptr noundef %0, i32 noundef 24)
  %37 = load i32, ptr %5, align 4
  %38 = icmp ult i32 %36, %37
  br i1 %38, label %39, label %41

39:                                               ; preds = %29
  %40 = call ptr @expert_add_info(ptr noundef %1, ptr noundef %31, ptr noundef nonnull @ei_cvf_invalid_data_length)
  store i32 %36, ptr %5, align 4
  br label %41

41:                                               ; preds = %39, %29
  %42 = phi i32 [ %36, %39 ], [ %37, %29 ]
  %43 = call ptr @tvb_new_subset_length(ptr noundef %0, i32 noundef 24, i32 noundef %42)
  %44 = load i32, ptr %6, align 4
  %45 = icmp eq i32 %44, 2
  br i1 %45, label %46, label %63

46:                                               ; preds = %41
  %47 = load i32, ptr %7, align 4
  switch i32 %47, label %60 [
    i32 0, label %48
    i32 1, label %51
    i32 2, label %57
  ]

48:                                               ; preds = %46
  %49 = load ptr, ptr @jpeg_handle, align 8
  %50 = call i32 @call_dissector(ptr noundef %49, ptr noundef %43, ptr noundef %1, ptr noundef %2)
  br label %65

51:                                               ; preds = %46
  %52 = load i32, ptr @hf_1722_cvf_h264_timestamp, align 4
  %53 = call ptr @proto_tree_add_item(ptr noundef %11, i32 noundef %52, ptr noundef %0, i32 noundef 24, i32 noundef 4, i32 noundef 0)
  %54 = load ptr, ptr @h264_handle, align 8
  %55 = call ptr @tvb_new_subset_remaining(ptr noundef %43, i32 noundef 4)
  %56 = call i32 @call_dissector(ptr noundef %54, ptr noundef %55, ptr noundef %1, ptr noundef %2)
  br label %65

57:                                               ; preds = %46
  %58 = call ptr @expert_add_info(ptr noundef %1, ptr noundef %.076, ptr noundef nonnull @ei_cvf_jpeg2000_format)
  %59 = call i32 @call_data_dissector(ptr noundef %43, ptr noundef %1, ptr noundef %2)
  br label %65

60:                                               ; preds = %46
  %61 = call ptr @expert_add_info(ptr noundef %1, ptr noundef %.076, ptr noundef nonnull @ei_cvf_reserved_format)
  %62 = call i32 @call_data_dissector(ptr noundef %43, ptr noundef %1, ptr noundef %2)
  br label %65

63:                                               ; preds = %41
  %64 = call i32 @call_data_dissector(ptr noundef %43, ptr noundef %1, ptr noundef %2)
  br label %65

65:                                               ; preds = %48, %51, %57, %60, %63
  %66 = load i32, ptr %5, align 4
  %67 = add i32 %66, 24
  call void @llvm.lifetime.end.p0(i64 4, ptr nonnull %7) #7
  call void @llvm.lifetime.end.p0(i64 4, ptr nonnull %6) #7
  call void @llvm.lifetime.end.p0(i64 4, ptr nonnull %5) #7
  ret i32 %67
}